target datalayout = "e-m:e-p270:32:32-p271:32:32-p272:64:64-i64:64-i128:128-f80:128-n8:16:32:64-S128"
target triple = "x86_64-pc-linux-gnu"

%struct.OPTARGS = type { i32, i32, i32, i32, ptr, ptr, ptr, ptr, ptr, i32, i32, ptr, [21 x i8], [256 x ptr], ptr, ptr, ptr, ptr }

@.str.59 = private unnamed_addr constant [4 x i8] c"END\00", align 1

; Function Attrs: mustprogress nounwind uwtable
define internal noundef i32 @_ZL7opt_eofP7OPTARGS(ptr noundef %0) #4 {
  %2 = alloca i32, align 4
  %3 = alloca ptr, align 8
  store ptr %0, ptr %3, align 8, !tbaa !4
  %4 = load ptr, ptr %3, align 8, !tbaa !4
  %5 = icmp eq ptr null, %4
  br i1 %5, label %6, label %7

6:                                                ; preds = %1
  store i32 1, ptr %2, align 4
  br label %12

7:                                                ; preds = %1
  %8 = load ptr, ptr %3, align 8, !tbaa !4
  %9 = getelementptr inbounds nuw %struct.OPTARGS, ptr %8, i32 0, i32 8
  %10 = load ptr, ptr %9, align 8, !tbaa !25
  %11 = call i32 @feof(ptr noundef %10) #3
  store i32 %11, ptr %2, align 4
  br label %12

12:                                               ; preds = %7, %6
  %13 = load i32, ptr %2, align 4
  ret i32 %13
}

; Function Attrs: mustprogress uwtable
define internal noundef i32 @_ZL11opt_ordinalP7OPTARGSPKc(ptr noundef %0, ptr noundef %1) #5 {
  %3 = alloca i32, align 4
  %4 = alloca ptr, align 8
  %5 = alloca ptr, align 8
  %6 = alloca i32, align 4
  %7 = alloca i32, align 4
  %8 = alloca ptr, align 8
  %9 = alloca ptr, align 8
  store ptr %0, ptr %4, align 8, !tbaa !4
  store ptr %1, ptr %5, align 8, !tbaa !18
  call void @llvm.lifetime.start.p0(i64 4, ptr %6) #3
  %10 = load ptr, ptr %4, align 8, !tbaa !4
  %11 = icmp eq ptr null, %10
  br i1 %11, label %12, label %13

12:                                               ; preds = %2
  store i32 0, ptr %3, align 4
  store i32 1, ptr %7, align 4
  br label %247

13:                                               ; preds = %2
  %14 = load ptr, ptr %5, align 8, !tbaa !18
  %15 = icmp eq ptr null, %14
  br i1 %15, label %16, label %17

16:                                               ; preds = %13
  store i32 0, ptr %3, align 4
  store i32 1, ptr %7, align 4
  br label %247

17:                                               ; preds = %13
  %18 = load ptr, ptr %5, align 8, !tbaa !18
  %19 = getelementptr inbounds i8, ptr %18, i64 0
  %20 = load i8, ptr %19, align 1, !tbaa !28
  %21 = sext i8 %20 to i32
  %22 = icmp eq i32 0, %21
  br i1 %22, label %23, label %24

23:                                               ; preds = %17
  store i32 0, ptr %3, align 4
  store i32 1, ptr %7, align 4
  br label %247

24:                                               ; preds = %17
  %25 = load ptr, ptr %5, align 8, !tbaa !18
  %26 = call i64 @strlen(ptr noundef %25) #23
  %27 = icmp eq i64 %26, 1
  br i1 %27, label %28, label %45

28:                                               ; preds = %24
  %29 = load ptr, ptr %4, align 8, !tbaa !4
  %30 = getelementptr inbounds nuw %struct.OPTARGS, ptr %29, i32 0, i32 13
  %31 = load ptr, ptr %5, align 8, !tbaa !18
  %32 = getelementptr inbounds i8, ptr %31, i64 0
  %33 = load i8, ptr %32, align 1, !tbaa !28
  %34 = sext i8 %33 to i32
  %35 = sext i32 %34 to i64
  %36 = getelementptr inbounds [256 x ptr], ptr %30, i64 0, i64 %35
  %37 = load ptr, ptr %36, align 8, !tbaa !18
  %38 = icmp eq ptr null, %37
  br i1 %38, label %39, label %40

39:                                               ; preds = %28
  store i32 0, ptr %3, align 4
  store i32 1, ptr %7, align 4
  br label %247

40:                                               ; preds = %28
  %41 = load ptr, ptr %5, align 8, !tbaa !18
  %42 = getelementptr inbounds i8, ptr %41, i64 0
  %43 = load i8, ptr %42, align 1, !tbaa !28
  %44 = sext i8 %43 to i32
  store i32 %44, ptr %3, align 4
  store i32 1, ptr %7, align 4
  br label %247

45:                                               ; preds = %24
  store i32 0, ptr %6, align 4, !tbaa !20
  br label %46

46:                                               ; preds = %142, %45
  %47 = load i32, ptr %6, align 4, !tbaa !20
  %48 = icmp slt i32 %47, 64
  br i1 %48, label %49, label %145

49:                                               ; preds = %46
  call void @llvm.lifetime.start.p0(i64 8, ptr %8) #3
  %50 = load ptr, ptr %4, align 8, !tbaa !4
  %51 = getelementptr inbounds nuw %struct.OPTARGS, ptr %50, i32 0, i32 16
  %52 = load ptr, ptr %51, align 8, !tbaa !29
  store ptr %52, ptr %8, align 8, !tbaa !30
  %53 = load ptr, ptr %8, align 8, !tbaa !30
  %54 = icmp eq ptr null, %53
  br i1 %54, label %55, label %56

55:                                               ; preds = %49
  store i32 2, ptr %7, align 4
  br label %139

56:                                               ; preds = %49
  %57 = load ptr, ptr %8, align 8, !tbaa !30
  %58 = load i32, ptr %6, align 4, !tbaa !20
  %59 = sext i32 %58 to i64
  %60 = getelementptr inbounds ptr, ptr %57, i64 %59
  %61 = load ptr, ptr %60, align 8, !tbaa !18
  %62 = icmp eq ptr null, %61
  br i1 %62, label %63, label %64

63:                                               ; preds = %56
  store i32 2, ptr %7, align 4
  br label %139

64:                                               ; preds = %56
  %65 = load ptr, ptr %8, align 8, !tbaa !30
  %66 = load i32, ptr %6, align 4, !tbaa !20
  %67 = sext i32 %66 to i64
  %68 = getelementptr inbounds ptr, ptr %65, i64 %67
  %69 = load ptr, ptr %68, align 8, !tbaa !18
  %70 = call i32 @strcmp(ptr noundef %69, ptr noundef @.str.59) #23
  %71 = icmp eq i32 0, %70
  br i1 %71, label %72, label %73

72:                                               ; preds = %64
  store i32 2, ptr %7, align 4
  br label %139

73:                                               ; preds = %64
  %74 = load ptr, ptr %8, align 8, !tbaa !30
  %75 = load i32, ptr %6, align 4, !tbaa !20
  %76 = sext i32 %75 to i64
  %77 = getelementptr inbounds ptr, ptr %74, i64 %76
  %78 = load ptr, ptr %77, align 8, !tbaa !18
  %79 = load ptr, ptr %5, align 8, !tbaa !18
  %80 = call i32 @strcmp(ptr noundef %78, ptr noundef %79) #23
  %81 = icmp eq i32 0, %80
  br i1 %81, label %82, label %85

82:                                               ; preds = %73
  %83 = load i32, ptr %6, align 4, !tbaa !20
  %84 = add nsw i32 128, %83
  store i32 %84, ptr %3, align 4
  store i32 1, ptr %7, align 4
  br label %139

85:                                               ; preds = %73
  %86 = load ptr, ptr %8, align 8, !tbaa !30
  %87 = load i32, ptr %6, align 4, !tbaa !20
  %88 = sext i32 %87 to i64
  %89 = getelementptr inbounds ptr, ptr %86, i64 %88
  %90 = load ptr, ptr %89, align 8, !tbaa !18
  %91 = call i64 @strlen(ptr noundef %90) #23
  %92 = icmp ugt i64 %91, 2
  br i1 %92, label %93, label %138

93:                                               ; preds = %85
  %94 = load ptr, ptr %8, align 8, !tbaa !30
  %95 = load i32, ptr %6, align 4, !tbaa !20
  %96 = sext i32 %95 to i64
  %97 = getelementptr inbounds ptr, ptr %94, i64 %96
  %98 = load ptr, ptr %97, align 8, !tbaa !18
  %99 = getelementptr inbounds i8, ptr %98, i64 1
  %100 = load i8, ptr %99, align 1, !tbaa !28
  %101 = sext i8 %100 to i32
  %102 = icmp eq i32 %101, 61
  br i1 %102, label %103, label %138

103:                                              ; preds = %93
  %104 = load ptr, ptr %8, align 8, !tbaa !30
  %105 = load i32, ptr %6, align 4, !tbaa !20
  %106 = sext i32 %105 to i64
  %107 = getelementptr inbounds ptr, ptr %104, i64 %106
  %108 = load ptr, ptr %107, align 8, !tbaa !18
  %109 = getelementptr inbounds i8, ptr %108, i64 2
  %110 = load ptr, ptr %5, align 8, !tbaa !18
  %111 = call i32 @strcmp(ptr noundef %109, ptr noundef %110) #23
  %112 = icmp eq i32 0, %111
  br i1 %112, label %113, label %138

113:                                              ; preds = %103
  %114 = load ptr, ptr %4, align 8, !tbaa !4
  %115 = getelementptr inbounds nuw %struct.OPTARGS, ptr %114, i32 0, i32 13
  %116 = load ptr, ptr %8, align 8, !tbaa !30
  %117 = load i32, ptr %6, align 4, !tbaa !20
  %118 = sext i32 %117 to i64
  %119 = getelementptr inbounds ptr, ptr %116, i64 %118
  %120 = load ptr, ptr %119, align 8, !tbaa !18
  %121 = getelementptr inbounds i8, ptr %120, i64 0
  %122 = load i8, ptr %121, align 1, !tbaa !28
  %123 = sext i8 %122 to i32
  %124 = sext i32 %123 to i64
  %125 = getelementptr inbounds [256 x ptr], ptr %115, i64 0, i64 %124
  %126 = load ptr, ptr %125, align 8, !tbaa !18
  %127 = icmp eq ptr null, %126
  br i1 %127, label %128, label %129

128:                                              ; preds = %113
  store i32 0, ptr %3, align 4
  store i32 1, ptr %7, align 4
  br label %139

129:                                              ; preds = %113
  %130 = load ptr, ptr %8, align 8, !tbaa !30
  %131 = load i32, ptr %6, align 4, !tbaa !20
  %132 = sext i32 %131 to i64
  %133 = getelementptr inbounds ptr, ptr %130, i64 %132
  %134 = load ptr, ptr %133, align 8, !tbaa !18
  %135 = getelementptr inbounds i8, ptr %134, i64 0
  %136 = load i8, ptr %135, align 1, !tbaa !28
  %137 = sext i8 %136 to i32
  store i32 %137, ptr %3, align 4
  store i32 1, ptr %7, align 4
  br label %139

138:                                              ; preds = %103, %93, %85
  store i32 0, ptr %7, align 4
  br label %139

139:                                              ; preds = %138, %129, %128, %82, %72, %63, %55
  call void @llvm.lifetime.end.p0(i64 8, ptr %8) #3
  %140 = load i32, ptr %7, align 4
  switch i32 %140, label %247 [
    i32 0, label %141
    i32 2, label %145
  ]

141:                                              ; preds = %139
  br label %142

142:                                              ; preds = %141
  %143 = load i32, ptr %6, align 4, !tbaa !20
  %144 = add nsw i32 %143, 1
  store i32 %144, ptr %6, align 4, !tbaa !20
  br label %46, !llvm.loop !31

145:                                              ; preds = %139, %46
  store i32 0, ptr %6, align 4, !tbaa !20
  br label %146

146:                                              ; preds = %242, %145
  %147 = load i32, ptr %6, align 4, !tbaa !20
  %148 = icmp slt i32 %147, 64
  br i1 %148, label %149, label %245

149:                                              ; preds = %146
  call void @llvm.lifetime.start.p0(i64 8, ptr %9) #3
  %150 = load ptr, ptr %4, align 8, !tbaa !4
  %151 = getelementptr inbounds nuw %struct.OPTARGS, ptr %150, i32 0, i32 17
  %152 = load ptr, ptr %151, align 8, !tbaa !33
  store ptr %152, ptr %9, align 8, !tbaa !30
  %153 = load ptr, ptr %9, align 8, !tbaa !30
  %154 = icmp eq ptr null, %153
  br i1 %154, label %155, label %156

155:                                              ; preds = %149
  store i32 0, ptr %3, align 4
  store i32 1, ptr %7, align 4
  br label %239

156:                                              ; preds = %149
  %157 = load ptr, ptr %9, align 8, !tbaa !30
  %158 = load i32, ptr %6, align 4, !tbaa !20
  %159 = sext i32 %158 to i64
  %160 = getelementptr inbounds ptr, ptr %157, i64 %159
  %161 = load ptr, ptr %160, align 8, !tbaa !18
  %162 = icmp eq ptr null, %161
  br i1 %162, label %163, label %164

163:                                              ; preds = %156
  store i32 0, ptr %3, align 4
  store i32 1, ptr %7, align 4
  br label %239

164:                                              ; preds = %156
  %165 = load ptr, ptr %9, align 8, !tbaa !30
  %166 = load i32, ptr %6, align 4, !tbaa !20
  %167 = sext i32 %166 to i64
  %168 = getelementptr inbounds ptr, ptr %165, i64 %167
  %169 = load ptr, ptr %168, align 8, !tbaa !18
  %170 = call i32 @strcmp(ptr noundef %169, ptr noundef @.str.59) #23
  %171 = icmp eq i32 0, %170
  br i1 %171, label %172, label %173

172:                                              ; preds = %164
  store i32 0, ptr %3, align 4
  store i32 1, ptr %7, align 4
  br label %239

173:                                              ; preds = %164
  %174 = load ptr, ptr %9, align 8, !tbaa !30
  %175 = load i32, ptr %6, align 4, !tbaa !20
  %176 = sext i32 %175 to i64
  %177 = getelementptr inbounds ptr, ptr %174, i64 %176
  %178 = load ptr, ptr %177, align 8, !tbaa !18
  %179 = load ptr, ptr %5, align 8, !tbaa !18
  %180 = call i32 @strcmp(ptr noundef %178, ptr noundef %179) #23
  %181 = icmp eq i32 0, %180
  br i1 %181, label %182, label %185

182:                                              ; preds = %173
  %183 = load i32, ptr %6, align 4, !tbaa !20
  %184 = add nsw i32 192, %183
  store i32 %184, ptr %3, align 4
  store i32 1, ptr %7, align 4
  br label %239

185:                                              ; preds = %173
  %186 = load ptr, ptr %9, align 8, !tbaa !30
  %187 = load i32, ptr %6, align 4, !tbaa !20
  %188 = sext i32 %187 to i64
  %189 = getelementptr inbounds ptr, ptr %186, i64 %188
  %190 = load ptr, ptr %189, align 8, !tbaa !18
  %191 = call i64 @strlen(ptr noundef %190) #23
  %192 = icmp ugt i64 %191, 2
  br i1 %192, label %193, label %238

193:                                              ; preds = %185
  %194 = load ptr, ptr %9, align 8, !tbaa !30
  %195 = load i32, ptr %6, align 4, !tbaa !20
  %196 = sext i32 %195 to i64
  %197 = getelementptr inbounds ptr, ptr %194, i64 %196
  %198 = load ptr, ptr %197, align 8, !tbaa !18
  %199 = getelementptr inbounds i8, ptr %198, i64 1
  %200 = load i8, ptr %199, align 1, !tbaa !28
  %201 = sext i8 %200 to i32
  %202 = icmp eq i32 %201, 61
  br i1 %202, label %203, label %238

203:                                              ; preds = %193
  %204 = load ptr, ptr %9, align 8, !tbaa !30
  %205 = load i32, ptr %6, align 4, !tbaa !20
  %206 = sext i32 %205 to i64
  %207 = getelementptr inbounds ptr, ptr %204, i64 %206
  %208 = load ptr, ptr %207, align 8, !tbaa !18
  %209 = getelementptr inbounds i8, ptr %208, i64 2
  %210 = load ptr, ptr %5, align 8, !tbaa !18
  %211 = call i32 @strcmp(ptr noundef %209, ptr noundef %210) #23
  %212 = icmp eq i32 0, %211
  br i1 %212, label %213, label %238

213:                                              ; preds = %203
  %214 = load ptr, ptr %4, align 8, !tbaa !4
  %215 = getelementptr inbounds nuw %struct.OPTARGS, ptr %214, i32 0, i32 13
  %216 = load ptr, ptr %9, align 8, !tbaa !30
  %217 = load i32, ptr %6, align 4, !tbaa !20
  %218 = sext i32 %217 to i64
  %219 = getelementptr inbounds ptr, ptr %216, i64 %218
  %220 = load ptr, ptr %219, align 8, !tbaa !18
  %221 = getelementptr inbounds i8, ptr %220, i64 0
  %222 = load i8, ptr %221, align 1, !tbaa !28
  %223 = sext i8 %222 to i32
  %224 = sext i32 %223 to i64
  %225 = getelementptr inbounds [256 x ptr], ptr %215, i64 0, i64 %224
  %226 = load ptr, ptr %225, align 8, !tbaa !18
  %227 = icmp eq ptr null, %226
  br i1 %227, label %228, label %229

228:                                              ; preds = %213
  store i32 0, ptr %3, align 4
  store i32 1, ptr %7, align 4
  br label %239

229:                                              ; preds = %213
  %230 = load ptr, ptr %9, align 8, !tbaa !30
  %231 = load i32, ptr %6, align 4, !tbaa !20
  %232 = sext i32 %231 to i64
  %233 = getelementptr inbounds ptr, ptr %230, i64 %232
  %234 = load ptr, ptr %233, align 8, !tbaa !18
  %235 = getelementptr inbounds i8, ptr %234, i64 0
  %236 = load i8, ptr %235, align 1, !tbaa !28
  %237 = sext i8 %236 to i32
  store i32 %237, ptr %3, align 4
  store i32 1, ptr %7, align 4
  br label %239

238:                                              ; preds = %203, %193, %185
  store i32 0, ptr %7, align 4
  br label %239

239:                                              ; preds = %238, %229, %228, %182, %172, %163, %155
  call void @llvm.lifetime.end.p0(i64 8, ptr %9) #3
  %240 = load i32, ptr %7, align 4
  switch i32 %240, label %247 [
    i32 0, label %241
  ]

241:                                              ; preds = %239
  br label %242

242:                                              ; preds = %241
  %243 = load i32, ptr %6, align 4, !tbaa !20
  %244 = add nsw i32 %243, 1
  store i32 %244, ptr %6, align 4, !tbaa !20
  br label %146, !llvm.loop !34

245:                                              ; preds = %146
  %246 = call noundef i32 @_ZL7opt_eofP7OPTARGS(ptr noundef null)
  store i32 0, ptr %3, align 4
  store i32 1, ptr %7, align 4
  br label %247

247:                                              ; preds = %245, %239, %139, %40, %39, %23, %16, %12
  call void @llvm.lifetime.end.p0(i64 4, ptr %6) #3
  %248 = load i32, ptr %3, align 4
  ret i32 %248
}