; Function Attrs: mustprogress nofree nounwind willreturn memory(read, inaccessiblemem: none) uwtable
define internal fastcc noundef range(i32 -128, 256) i32 @_ZL11opt_ordinalP7OPTARGSPKc(ptr noundef readonly %0, ptr noundef readonly %1) unnamed_addr #8 {
  %3 = icmp eq ptr %0, null
  %4 = icmp eq ptr %1, null
  %or.cond = or i1 %3, %4
  br i1 %or.cond, label %.thread77, label %5

5:                                                ; preds = %2
  %6 = load i8, ptr %1, align 1, !tbaa !23
  %7 = sext i8 %6 to i32
  %8 = icmp eq i8 %6, 0
  br i1 %8, label %.thread77, label %9

9:                                                ; preds = %5
  %10 = tail call i64 @strlen(ptr noundef nonnull dereferenceable(1) %1) #32
  %11 = icmp eq i64 %10, 1
  br i1 %11, label %15, label %.preheader

.preheader:                                       ; preds = %9
  %12 = getelementptr inbounds nuw i8, ptr %0, i64 2160
  %13 = load ptr, ptr %12, align 8, !tbaa !24
  %14 = icmp eq ptr %13, null
  br i1 %14, label %.thread73.split, label %.preheader.split

15:                                               ; preds = %9
  %16 = getelementptr inbounds nuw i8, ptr %0, i64 96
  %17 = sext i8 %6 to i64
  %18 = getelementptr inbounds [256 x ptr], ptr %16, i64 0, i64 %17
  %19 = load ptr, ptr %18, align 8, !tbaa !16
  %20 = icmp eq ptr %19, null
  %. = select i1 %20, i32 0, i32 %7
  br label %.thread77

.preheader.split:                                 ; preds = %.preheader, %52
  %indvars.iv = phi i64 [ %indvars.iv.next, %52 ], [ 0, %.preheader ]
  %21 = getelementptr inbounds nuw ptr, ptr %13, i64 %indvars.iv
  %22 = load ptr, ptr %21, align 8, !tbaa !16
  %23 = icmp eq ptr %22, null
  br i1 %23, label %.thread73.split, label %24

24:                                               ; preds = %.preheader.split
  %25 = tail call i32 @strcmp(ptr noundef nonnull dereferenceable(1) %22, ptr noundef nonnull dereferenceable(4) @.str.59) #32
  %26 = icmp eq i32 %25, 0
  br i1 %26, label %.thread73.split, label %27

27:                                               ; preds = %24
  %28 = tail call i32 @strcmp(ptr noundef nonnull dereferenceable(1) %22, ptr noundef nonnull dereferenceable(1) %1) #32
  %29 = icmp eq i32 %28, 0
  br i1 %29, label %30, label %33

30:                                               ; preds = %27
  %31 = trunc nuw nsw i64 %indvars.iv to i32
  %32 = or disjoint i32 %31, 128
  br label %.thread77

33:                                               ; preds = %27
  %34 = tail call i64 @strlen(ptr noundef nonnull dereferenceable(1) %22) #32
  %35 = icmp ugt i64 %34, 2
  br i1 %35, label %36, label %52

36:                                               ; preds = %33
  %37 = getelementptr inbounds nuw i8, ptr %22, i64 1
  %38 = load i8, ptr %37, align 1, !tbaa !23
  %39 = icmp eq i8 %38, 61
  br i1 %39, label %40, label %52

40:                                               ; preds = %36
  %41 = getelementptr inbounds nuw i8, ptr %22, i64 2
  %42 = tail call i32 @strcmp(ptr noundef nonnull dereferenceable(1) %41, ptr noundef nonnull dereferenceable(1) %1) #32
  %43 = icmp eq i32 %42, 0
  br i1 %43, label %44, label %52

44:                                               ; preds = %40
  %45 = getelementptr inbounds nuw i8, ptr %0, i64 96
  %46 = load i8, ptr %22, align 1, !tbaa !23
  %47 = sext i8 %46 to i64
  %48 = getelementptr inbounds [256 x ptr], ptr %45, i64 0, i64 %47
  %49 = load ptr, ptr %48, align 8, !tbaa !16
  %50 = icmp eq ptr %49, null
  %51 = sext i8 %46 to i32
  %spec.select = select i1 %50, i32 0, i32 %51
  br label %.thread77

52:                                               ; preds = %40, %36, %33
  %indvars.iv.next = add nuw nsw i64 %indvars.iv, 1
  %exitcond.not = icmp eq i64 %indvars.iv.next, 64
  br i1 %exitcond.not, label %.thread73.split, label %.preheader.split, !llvm.loop !25

.thread73.split:                                  ; preds = %52, %.preheader.split, %24, %.preheader
  %53 = getelementptr inbounds nuw i8, ptr %0, i64 2168
  %54 = load ptr, ptr %53, align 8, !tbaa !27
  %55 = icmp eq ptr %54, null
  br i1 %55, label %.thread77, label %.thread73.split.split

.thread73.split.split:                            ; preds = %.thread73.split, %87
  %indvars.iv97 = phi i64 [ %indvars.iv.next98, %87 ], [ 0, %.thread73.split ]
  %56 = getelementptr inbounds nuw ptr, ptr %54, i64 %indvars.iv97
  %57 = load ptr, ptr %56, align 8, !tbaa !16
  %58 = icmp eq ptr %57, null
  br i1 %58, label %.thread77, label %59

59:                                               ; preds = %.thread73.split.split
  %60 = tail call i32 @strcmp(ptr noundef nonnull dereferenceable(1) %57, ptr noundef nonnull dereferenceable(4) @.str.59) #32
  %61 = icmp eq i32 %60, 0
  br i1 %61, label %.thread77, label %62

62:                                               ; preds = %59
  %63 = tail call i32 @strcmp(ptr noundef nonnull dereferenceable(1) %57, ptr noundef nonnull dereferenceable(1) %1) #32
  %64 = icmp eq i32 %63, 0
  br i1 %64, label %65, label %68

65:                                               ; preds = %62
  %66 = trunc nuw nsw i64 %indvars.iv97 to i32
  %67 = or disjoint i32 %66, 192
  br label %.thread77

68:                                               ; preds = %62
  %69 = tail call i64 @strlen(ptr noundef nonnull dereferenceable(1) %57) #32
  %70 = icmp ugt i64 %69, 2
  br i1 %70, label %71, label %87

71:                                               ; preds = %68
  %72 = getelementptr inbounds nuw i8, ptr %57, i64 1
  %73 = load i8, ptr %72, align 1, !tbaa !23
  %74 = icmp eq i8 %73, 61
  br i1 %74, label %75, label %87

75:                                               ; preds = %71
  %76 = getelementptr inbounds nuw i8, ptr %57, i64 2
  %77 = tail call i32 @strcmp(ptr noundef nonnull dereferenceable(1) %76, ptr noundef nonnull dereferenceable(1) %1) #32
  %78 = icmp eq i32 %77, 0
  br i1 %78, label %79, label %87

79:                                               ; preds = %75
  %80 = getelementptr inbounds nuw i8, ptr %0, i64 96
  %81 = load i8, ptr %57, align 1, !tbaa !23
  %82 = sext i8 %81 to i64
  %83 = getelementptr inbounds [256 x ptr], ptr %80, i64 0, i64 %82
  %84 = load ptr, ptr %83, align 8, !tbaa !16
  %85 = icmp eq ptr %84, null
  %86 = sext i8 %81 to i32
  %spec.select68 = select i1 %85, i32 0, i32 %86
  br label %.thread77

87:                                               ; preds = %75, %71, %68
  %indvars.iv.next98 = add nuw nsw i64 %indvars.iv97, 1
  %exitcond100.not = icmp eq i64 %indvars.iv.next98, 64
  br i1 %exitcond100.not, label %.thread77, label %.thread73.split.split, !llvm.loop !28

.thread77:                                        ; preds = %87, %.thread73.split.split, %59, %.thread73.split, %79, %65, %30, %44, %15, %5, %2
  %.0 = phi i32 [ 0, %2 ], [ 0, %5 ], [ %., %15 ], [ %32, %30 ], [ %spec.select, %44 ], [ %spec.select68, %79 ], [ %67, %65 ], [ 0, %.thread73.split ], [ 0, %59 ], [ 0, %.thread73.split.split ], [ 0, %87 ]
  ret i32 %.0
}